; Function Attrs: nounwind uwtable
define internal fastcc noalias noundef ptr @php_fopen_and_set_opened_path(ptr noundef %0, ptr nocapture noundef readonly %1, ptr noundef writeonly %2) unnamed_addr #0 {
  %4 = tail call noundef i32 @php_check_open_basedir_ex(ptr noundef %0, i32 noundef 1), !range !4
  %.not = icmp eq i32 %4, 0
  br i1 %.not, label %5, label %21

5:                                                ; preds = %3
  %6 = tail call noalias ptr @fopen(ptr noundef %0, ptr noundef %1)
  %7 = icmp ne ptr %6, null
  %8 = icmp ne ptr %2, null
  %or.cond = and i1 %8, %7
  br i1 %or.cond, label %9, label %21

9:                                                ; preds = %5
  %10 = tail call ptr @expand_filepath_with_mode(ptr noundef %0, ptr noundef null, ptr noundef null, i64 noundef 0, i32 noundef 0)
  %.not70 = icmp eq ptr %10, null
  br i1 %.not70, label %21, label %11

11:                                               ; preds = %9
  %12 = tail call i64 @strlen(ptr noundef nonnull dereferenceable(1) %10) #17
  %13 = and i64 %12, -8
  %14 = add i64 %13, 32
  %15 = tail call noalias ptr @_emalloc(i64 noundef %14) #19
  store i32 1, ptr %15, align 4
  %16 = getelementptr inbounds i8, ptr %15, i64 4
  store i32 22, ptr %16, align 4
  %17 = getelementptr inbounds i8, ptr %15, i64 8
  store i64 0, ptr %17, align 8
  %18 = getelementptr inbounds i8, ptr %15, i64 16
  store i64 %12, ptr %18, align 8
  %19 = getelementptr inbounds i8, ptr %15, i64 24
  tail call void @llvm.memcpy.p0.p0.i64(ptr nonnull align 8 %19, ptr nonnull align 1 %10, i64 %12, i1 false)
  %20 = getelementptr inbounds [1 x i8], ptr %19, i64 0, i64 %12
  store i8 0, ptr %20, align 1
  store ptr %15, ptr %2, align 8
  tail call void @_efree(ptr noundef nonnull %10) #16
  br label %21

21:                                               ; preds = %5, %11, %9, %3
  %.0 = phi ptr [ null, %3 ], [ %6, %9 ], [ %6, %11 ], [ %6, %5 ]
  ret ptr %.0
}